target datalayout = "e-m:e-p270:32:32-p271:32:32-p272:64:64-i64:64-i128:128-f80:128-n8:16:32:64-S128"
target triple = "x86_64-pc-linux-gnu"

; Function Attrs: inlinehint mustprogress nounwind uwtable
define internal noundef signext i8 @_ZL9U_FAILURE10UErrorCode(i32 noundef %0) #4 {
  %2 = alloca i32, align 4
  store i32 %0, ptr %2, align 4, !tbaa !19
  %3 = load i32, ptr %2, align 4, !tbaa !19
  %4 = icmp sgt i32 %3, 0
  %5 = zext i1 %4 to i8
  ret i8 %5
}

; Function Attrs: mustprogress uwtable
define noundef i64 @_ZNK6icu_7715IslamicCalendar10monthStartEiiR10UErrorCode(ptr noundef nonnull align 8 dereferenceable(192) %0, i32 noundef %1, i32 noundef %2, ptr noundef nonnull align 4 dereferenceable(4) %3) unnamed_addr #1 align 2 {
  %5 = alloca i64, align 8
  %6 = alloca ptr, align 8
  %7 = alloca i32, align 4
  %8 = alloca i32, align 4
  %9 = alloca ptr, align 8
  %10 = alloca i32, align 4
  %11 = alloca i32, align 4
  store ptr %0, ptr %6, align 8, !tbaa !3
  store i32 %1, ptr %7, align 4, !tbaa !17
  store i32 %2, ptr %8, align 4, !tbaa !17
  store ptr %3, ptr %9, align 8, !tbaa !12
  %12 = load ptr, ptr %9, align 8, !tbaa !12
  %13 = load i32, ptr %12, align 4, !tbaa !19
  %14 = call noundef signext i8 @_ZL9U_FAILURE10UErrorCode(i32 noundef %13)
  %15 = icmp ne i8 %14, 0
  br i1 %15, label %16, label %17

16:                                               ; preds = %4
  store i64 0, ptr %5, align 8
  br label %38

17:                                               ; preds = %4
  call void @llvm.lifetime.start.p0(i64 4, ptr %10) #8
  %18 = load i32, ptr %7, align 4, !tbaa !17
  %19 = call signext i8 @uprv_add32_overflow_77(i32 noundef %18, i32 noundef -1, ptr noundef %10)
  %20 = icmp ne i8 %19, 0
  br i1 %20, label %30, label %21

21:                                               ; preds = %17
  %22 = load i32, ptr %10, align 4, !tbaa !17
  %23 = call signext i8 @uprv_mul32_overflow_77(i32 noundef %22, i32 noundef 12, ptr noundef %10)
  %24 = icmp ne i8 %23, 0
  br i1 %24, label %30, label %25

25:                                               ; preds = %21
  %26 = load i32, ptr %10, align 4, !tbaa !17
  %27 = load i32, ptr %8, align 4, !tbaa !17
  %28 = call signext i8 @uprv_add32_overflow_77(i32 noundef %26, i32 noundef %27, ptr noundef %8)
  %29 = icmp ne i8 %28, 0
  br i1 %29, label %30, label %32

30:                                               ; preds = %25, %21, %17
  %31 = load ptr, ptr %9, align 8, !tbaa !12
  store i32 1, ptr %31, align 4, !tbaa !19
  store i64 0, ptr %5, align 8
  store i32 1, ptr %11, align 4
  br label %37

32:                                               ; preds = %25
  %33 = load i32, ptr %8, align 4, !tbaa !17
  %34 = load ptr, ptr %9, align 8, !tbaa !12
  %35 = call noundef i32 @_ZN6icu_7712_GLOBAL__N_114trueMonthStartEiR10UErrorCode(i32 noundef %33, ptr noundef nonnull align 4 dereferenceable(4) %34)
  %36 = sext i32 %35 to i64
  store i64 %36, ptr %5, align 8
  store i32 1, ptr %11, align 4
  br label %37

37:                                               ; preds = %32, %30
  call void @llvm.lifetime.end.p0(i64 4, ptr %10) #8
  br label %38

38:                                               ; preds = %37, %16
  %39 = load i64, ptr %5, align 8
  ret i64 %39
}