; Function Attrs: mustprogress uwtable
define noundef range(i64 -2147483648, 2147483648) i64 @_ZNK6icu_7715IslamicCalendar10monthStartEiiR10UErrorCode(ptr nonnull readnone align 8 captures(none) %0, i32 noundef %1, i32 noundef %2, ptr noundef nonnull align 4 dereferenceable(4) %3) unnamed_addr #1 align 2 {
  %5 = alloca i32, align 4
  %6 = alloca i32, align 4
  store i32 %2, ptr %5, align 4, !tbaa !6
  %7 = load i32, ptr %3, align 4, !tbaa !9
  %8 = icmp slt i32 %7, 1
  br i1 %8, label %9, label %23

9:                                                ; preds = %4
  call void @llvm.lifetime.start.p0(i64 4, ptr nonnull %6) #10
  %10 = call signext i8 @uprv_add32_overflow_77(i32 noundef %1, i32 noundef -1, ptr noundef nonnull %6)
  %.not4 = icmp eq i8 %10, 0
  br i1 %.not4, label %11, label %17

11:                                               ; preds = %9
  %12 = load i32, ptr %6, align 4, !tbaa !6
  %13 = call signext i8 @uprv_mul32_overflow_77(i32 noundef %12, i32 noundef 12, ptr noundef nonnull %6)
  %.not5 = icmp eq i8 %13, 0
  br i1 %.not5, label %14, label %17

14:                                               ; preds = %11
  %15 = load i32, ptr %6, align 4, !tbaa !6
  %16 = call signext i8 @uprv_add32_overflow_77(i32 noundef %15, i32 noundef %2, ptr noundef nonnull %5)
  %.not6 = icmp eq i8 %16, 0
  br i1 %.not6, label %18, label %17

17:                                               ; preds = %14, %11, %9
  store i32 1, ptr %3, align 4, !tbaa !9
  br label %22

18:                                               ; preds = %14
  %19 = load i32, ptr %5, align 4, !tbaa !6
  %20 = call fastcc noundef i32 @_ZN6icu_7712_GLOBAL__N_114trueMonthStartEiR10UErrorCode(i32 noundef %19, ptr noundef nonnull align 4 dereferenceable(4) %3)
  %21 = sext i32 %20 to i64
  br label %22

22:                                               ; preds = %18, %17
  %.1 = phi i64 [ 0, %17 ], [ %21, %18 ]
  call void @llvm.lifetime.end.p0(i64 4, ptr nonnull %6) #10
  br label %23

23:                                               ; preds = %4, %22
  %.0 = phi i64 [ %.1, %22 ], [ 0, %4 ]
  ret i64 %.0
}